; Function Attrs: mustprogress uwtable
define dso_local noundef zeroext i1 @_ZN9cmCTestP415NoteOldRevisionEv(ptr noundef nonnull align 8 dereferenceable(880) %0) unnamed_addr #3 align 2 personality ptr @__gxx_personality_v0 {
  %2 = alloca %"class.std::__cxx11::basic_string", align 8
  %3 = alloca %"class.std::__cxx11::basic_ostringstream", align 8
  %4 = alloca %"class.std::__cxx11::basic_string", align 8
  call void @_ZN9cmCTestP418GetWorkingRevisionB5cxx11Ev(ptr dead_on_unwind nonnull writable sret(%"class.std::__cxx11::basic_string") align 8 %2, ptr noundef nonnull align 8 dereferenceable(880) %0)
  %5 = getelementptr inbounds i8, ptr %0, i64 440
  %6 = call noundef nonnull align 8 dereferenceable(32) ptr @_ZNSt7__cxx1112basic_stringIcSt11char_traitsIcESaIcEEaSEOS4_(ptr noundef nonnull align 8 dereferenceable(32) %5, ptr noundef nonnull align 8 dereferenceable(32) %2) #16
  call void @_ZNSt7__cxx1112basic_stringIcSt11char_traitsIcESaIcEED1Ev(ptr noundef nonnull align 8 dereferenceable(32) %2) #16
  call void @_ZNSt7__cxx1119basic_ostringstreamIcSt11char_traitsIcESaIcEEC1Ev(ptr noundef nonnull align 8 dereferenceable(112) %3)
  %7 = invoke noundef nonnull align 8 dereferenceable(8) ptr @_ZStlsISt11char_traitsIcEERSt13basic_ostreamIcT_ES5_PKc(ptr noundef nonnull align 8 dereferenceable(8) %3, ptr noundef nonnull @.str.17)
          to label %8 unwind label %20

8:                                                ; preds = %1
  %9 = invoke noundef nonnull align 8 dereferenceable(8) ptr @_ZStlsIcSt11char_traitsIcESaIcEERSt13basic_ostreamIT_T0_ES7_RKNSt7__cxx1112basic_stringIS4_S5_T1_EE(ptr noundef nonnull align 8 dereferenceable(8) %7, ptr noundef nonnull align 8 dereferenceable(32) %5)
          to label %10 unwind label %20

10:                                               ; preds = %8
  %11 = invoke noundef nonnull align 8 dereferenceable(8) ptr @_ZStlsISt11char_traitsIcEERSt13basic_ostreamIcT_ES5_PKc(ptr noundef nonnull align 8 dereferenceable(8) %9, ptr noundef nonnull @.str.18)
          to label %12 unwind label %20

12:                                               ; preds = %10
  %13 = getelementptr inbounds i8, ptr %0, i64 8
  %14 = load ptr, ptr %13, align 8
  invoke void @_ZNKSt7__cxx1119basic_ostringstreamIcSt11char_traitsIcESaIcEE3strEv(ptr dead_on_unwind nonnull writable sret(%"class.std::__cxx11::basic_string") align 8 %4, ptr noundef nonnull align 8 dereferenceable(112) %3)
          to label %15 unwind label %20

15:                                               ; preds = %12
  %16 = call noundef ptr @_ZNKSt7__cxx1112basic_stringIcSt11char_traitsIcESaIcEE5c_strEv(ptr noundef nonnull align 8 dereferenceable(32) %4) #16
  invoke void @_ZN7cmCTest3LogEiPKciS1_b(ptr noundef nonnull align 8 dereferenceable(8) %14, i32 noundef 2, ptr noundef nonnull @.str.19, i32 noundef 369, ptr noundef %16, i1 noundef zeroext false)
          to label %17 unwind label %22

17:                                               ; preds = %15
  call void @_ZNSt7__cxx1112basic_stringIcSt11char_traitsIcESaIcEED1Ev(ptr noundef nonnull align 8 dereferenceable(32) %4) #16
  call void @_ZNSt7__cxx1119basic_ostringstreamIcSt11char_traitsIcESaIcEED1Ev(ptr noundef nonnull align 8 dereferenceable(112) %3) #16
  %18 = getelementptr inbounds i8, ptr %0, i64 504
  %19 = call noundef nonnull align 8 dereferenceable(32) ptr @_ZNSt7__cxx1112basic_stringIcSt11char_traitsIcESaIcEEaSERKS4_(ptr noundef nonnull align 8 dereferenceable(32) %18, ptr noundef nonnull align 8 dereferenceable(32) %5)
  ret i1 true

20:                                               ; preds = %12, %10, %8, %1
  %21 = landingpad { ptr, i32 }
          cleanup
  br label %24

22:                                               ; preds = %15
  %23 = landingpad { ptr, i32 }
          cleanup
  call void @_ZNSt7__cxx1112basic_stringIcSt11char_traitsIcESaIcEED1Ev(ptr noundef nonnull align 8 dereferenceable(32) %4) #16
  br label %24

24:                                               ; preds = %22, %20
  %.pn = phi { ptr, i32 } [ %23, %22 ], [ %21, %20 ]
  call void @_ZNSt7__cxx1119basic_ostringstreamIcSt11char_traitsIcESaIcEED1Ev(ptr noundef nonnull align 8 dereferenceable(112) %3) #16
  resume { ptr, i32 } %.pn
}